target datalayout = "e-m:e-p270:32:32-p271:32:32-p272:64:64-i64:64-i128:128-f80:128-n8:16:32:64-S128"
target triple = "x86_64-unknown-linux-gnu"

%struct.UEnumeration = type { ptr, ptr, ptr, ptr, ptr, ptr, ptr }
%"struct.icu_75::CSRecognizerInfo" = type <{ ptr, i8, [7 x i8] }>
%struct.Context = type { i32, i8, ptr }

@_ZL19fCSRecognizers_size = internal global i32 0, align 4
@_ZL14fCSRecognizers = internal global ptr null, align 8

; Function Attrs: mustprogress nounwind uwtable
define internal noundef i32 @_ZL9enumCountP12UEnumerationP10UErrorCode(ptr noundef %en, ptr noundef %0) #3 {
entry:
  %retval = alloca i32, align 4
  %en.addr = alloca ptr, align 8
  %.addr = alloca ptr, align 8
  %count = alloca i32, align 4
  %enabledArray = alloca ptr, align 8
  %i = alloca i32, align 4
  %i8 = alloca i32, align 4
  store ptr %en, ptr %en.addr, align 8
  store ptr %0, ptr %.addr, align 8
  %1 = load ptr, ptr %en.addr, align 8
  %context = getelementptr inbounds %struct.UEnumeration, ptr %1, i32 0, i32 1
  %2 = load ptr, ptr %context, align 8
  %all = getelementptr inbounds %struct.Context, ptr %2, i32 0, i32 1
  %3 = load i8, ptr %all, align 4
  %tobool = icmp ne i8 %3, 0
  br i1 %tobool, label %if.then, label %if.end

if.then:                                          ; preds = %entry
  %4 = load i32, ptr @_ZL19fCSRecognizers_size, align 4
  store i32 %4, ptr %retval, align 4
  br label %return

if.end:                                           ; preds = %entry
  store i32 0, ptr %count, align 4
  %5 = load ptr, ptr %en.addr, align 8
  %context1 = getelementptr inbounds %struct.UEnumeration, ptr %5, i32 0, i32 1
  %6 = load ptr, ptr %context1, align 8
  %enabledRecognizers = getelementptr inbounds %struct.Context, ptr %6, i32 0, i32 2
  %7 = load ptr, ptr %enabledRecognizers, align 8
  store ptr %7, ptr %enabledArray, align 8
  %8 = load ptr, ptr %enabledArray, align 8
  %cmp = icmp ne ptr %8, null
  br i1 %cmp, label %if.then2, label %if.else

if.then2:                                         ; preds = %if.end
  store i32 0, ptr %i, align 4
  br label %for.cond

for.cond:                                         ; preds = %for.inc, %if.then2
  %9 = load i32, ptr %i, align 4
  %10 = load i32, ptr @_ZL19fCSRecognizers_size, align 4
  %cmp3 = icmp slt i32 %9, %10
  br i1 %cmp3, label %for.body, label %for.end

for.body:                                         ; preds = %for.cond
  %11 = load ptr, ptr %enabledArray, align 8
  %12 = load i32, ptr %i, align 4
  %idxprom = sext i32 %12 to i64
  %arrayidx = getelementptr inbounds i8, ptr %11, i64 %idxprom
  %13 = load i8, ptr %arrayidx, align 1
  %tobool4 = icmp ne i8 %13, 0
  br i1 %tobool4, label %if.then5, label %if.end6

if.then5:                                         ; preds = %for.body
  %14 = load i32, ptr %count, align 4
  %inc = add nsw i32 %14, 1
  store i32 %inc, ptr %count, align 4
  br label %if.end6

if.end6:                                          ; preds = %if.then5, %for.body
  br label %for.inc

for.inc:                                          ; preds = %if.end6
  %15 = load i32, ptr %i, align 4
  %inc7 = add nsw i32 %15, 1
  store i32 %inc7, ptr %i, align 4
  br label %for.cond, !llvm.loop !12

for.end:                                          ; preds = %for.cond
  br label %if.end21

if.else:                                          ; preds = %if.end
  store i32 0, ptr %i8, align 4
  br label %for.cond9

for.cond9:                                        ; preds = %for.inc18, %if.else
  %16 = load i32, ptr %i8, align 4
  %17 = load i32, ptr @_ZL19fCSRecognizers_size, align 4
  %cmp10 = icmp slt i32 %16, %17
  br i1 %cmp10, label %for.body11, label %for.end20

for.body11:                                       ; preds = %for.cond9
  %18 = load ptr, ptr @_ZL14fCSRecognizers, align 8
  %19 = load i32, ptr %i8, align 4
  %idxprom12 = sext i32 %19 to i64
  %arrayidx13 = getelementptr inbounds ptr, ptr %18, i64 %idxprom12
  %20 = load ptr, ptr %arrayidx13, align 8
  %isDefaultEnabled = getelementptr inbounds %"struct.icu_75::CSRecognizerInfo", ptr %20, i32 0, i32 1
  %21 = load i8, ptr %isDefaultEnabled, align 8
  %tobool14 = icmp ne i8 %21, 0
  br i1 %tobool14, label %if.then15, label %if.end17

if.then15:                                        ; preds = %for.body11
  %22 = load i32, ptr %count, align 4
  %inc16 = add nsw i32 %22, 1
  store i32 %inc16, ptr %count, align 4
  br label %if.end17

if.end17:                                         ; preds = %if.then15, %for.body11
  br label %for.inc18

for.inc18:                                        ; preds = %if.end17
  %23 = load i32, ptr %i8, align 4
  %inc19 = add nsw i32 %23, 1
  store i32 %inc19, ptr %i8, align 4
  br label %for.cond9, !llvm.loop !13

for.end20:                                        ; preds = %for.cond9
  br label %if.end21

if.end21:                                         ; preds = %for.end20, %for.end
  %24 = load i32, ptr %count, align 4
  store i32 %24, ptr %retval, align 4
  br label %return

return:                                           ; preds = %if.end21, %if.then
  %25 = load i32, ptr %retval, align 4
  ret i32 %25
}