; Function Attrs: mustprogress nofree norecurse nosync nounwind willreturn memory(read, inaccessiblemem: none) uwtable
define internal noundef i32 @_ZL9enumCountP12UEnumerationP10UErrorCode(ptr nocapture noundef readonly %en, ptr nocapture readnone %0) #11 {
entry:
  %context = getelementptr inbounds i8, ptr %en, i64 8
  %1 = load ptr, ptr %context, align 8
  %all = getelementptr inbounds i8, ptr %1, i64 4
  %2 = load i8, ptr %all, align 4
  %tobool.not = icmp eq i8 %2, 0
  br i1 %tobool.not, label %if.end, label %if.then

if.then:                                          ; preds = %entry
  %.b10 = load i1, ptr @_ZL19fCSRecognizers_size, align 4
  %3 = select i1 %.b10, i32 28, i32 0
  br label %return

if.end:                                           ; preds = %entry
  %enabledRecognizers = getelementptr inbounds i8, ptr %1, i64 8
  %4 = load ptr, ptr %enabledRecognizers, align 8
  %cmp.not = icmp eq ptr %4, null
  %.b = load i1, ptr @_ZL19fCSRecognizers_size, align 4
  br i1 %cmp.not, label %for.cond9.preheader, label %for.cond.preheader

for.cond.preheader:                               ; preds = %if.end
  br i1 %.b, label %for.body, label %return

for.cond9.preheader:                              ; preds = %if.end
  br i1 %.b, label %for.body11.lr.ph, label %return

for.body11.lr.ph:                                 ; preds = %for.cond9.preheader
  %5 = load ptr, ptr @_ZL14fCSRecognizers, align 8
  br label %for.body11

for.body:                                         ; preds = %for.cond.preheader, %for.body
  %indvars.iv = phi i64 [ %indvars.iv.next, %for.body ], [ 0, %for.cond.preheader ]
  %count.015 = phi i32 [ %spec.select, %for.body ], [ 0, %for.cond.preheader ]
  %arrayidx = getelementptr inbounds i8, ptr %4, i64 %indvars.iv
  %6 = load i8, ptr %arrayidx, align 1
  %tobool4.not = icmp ne i8 %6, 0
  %inc = zext i1 %tobool4.not to i32
  %spec.select = add nuw nsw i32 %count.015, %inc
  %indvars.iv.next = add nuw nsw i64 %indvars.iv, 1
  %exitcond.not = icmp eq i64 %indvars.iv.next, 28
  br i1 %exitcond.not, label %return, label %for.body, !llvm.loop !12

for.body11:                                       ; preds = %for.body11.lr.ph, %for.body11
  %indvars.iv23 = phi i64 [ 0, %for.body11.lr.ph ], [ %indvars.iv.next24, %for.body11 ]
  %count.217 = phi i32 [ 0, %for.body11.lr.ph ], [ %spec.select13, %for.body11 ]
  %arrayidx13 = getelementptr inbounds ptr, ptr %5, i64 %indvars.iv23
  %7 = load ptr, ptr %arrayidx13, align 8
  %isDefaultEnabled = getelementptr inbounds i8, ptr %7, i64 8
  %8 = load i8, ptr %isDefaultEnabled, align 8
  %tobool14.not = icmp ne i8 %8, 0
  %inc16 = zext i1 %tobool14.not to i32
  %spec.select13 = add nuw nsw i32 %count.217, %inc16
  %indvars.iv.next24 = add nuw nsw i64 %indvars.iv23, 1
  %exitcond26.not = icmp eq i64 %indvars.iv.next24, 28
  br i1 %exitcond26.not, label %return, label %for.body11, !llvm.loop !13

return:                                           ; preds = %for.body, %for.body11, %for.cond.preheader, %for.cond9.preheader, %if.then
  %retval.0 = phi i32 [ %3, %if.then ], [ 0, %for.cond9.preheader ], [ 0, %for.cond.preheader ], [ %spec.select13, %for.body11 ], [ %spec.select, %for.body ]
  ret i32 %retval.0
}